target datalayout = "e-m:e-p270:32:32-p271:32:32-p272:64:64-i64:64-i128:128-f80:128-n8:16:32:64-S128"
target triple = "x86_64-pc-linux-gnu"

%class.AtomIterator = type { ptr, i64, ptr, i32, i32, i32, i32 }
%struct.t_atoms = type { i32, ptr, ptr, ptr, ptr, i32, ptr, ptr, i8, i8, i8, i8, i8 }
%class.AtomProxy = type { ptr }

; Function Attrs: mustprogress nounwind uwtable
define noundef ptr @_ZNK9AtomProxy8atomNameEv(ptr noundef nonnull align 8 dereferenceable(8) %0) #1 align 2 {
  %2 = alloca ptr, align 8
  store ptr %0, ptr %2, align 8
  %3 = load ptr, ptr %2, align 8
  %4 = getelementptr inbounds %class.AtomProxy, ptr %3, i32 0, i32 0
  %5 = load ptr, ptr %4, align 8
  %6 = getelementptr inbounds %class.AtomIterator, ptr %5, i32 0, i32 2
  %7 = load ptr, ptr %6, align 8
  %8 = getelementptr inbounds %struct.t_atoms, ptr %7, i32 0, i32 2
  %9 = load ptr, ptr %8, align 8
  %10 = getelementptr inbounds %class.AtomProxy, ptr %3, i32 0, i32 0
  %11 = load ptr, ptr %10, align 8
  %12 = getelementptr inbounds %class.AtomIterator, ptr %11, i32 0, i32 5
  %13 = load i32, ptr %12, align 8
  %14 = sext i32 %13 to i64
  %15 = getelementptr inbounds ptr, ptr %9, i64 %14
  %16 = load ptr, ptr %15, align 8
  %17 = load ptr, ptr %16, align 8
  ret ptr %17
}