; Function Attrs: mustprogress nofree norecurse nosync nounwind willreturn memory(read, inaccessiblemem: none) uwtable
define noundef ptr @_ZNK9AtomProxy8atomNameEv(ptr nocapture noundef nonnull readonly align 8 dereferenceable(8) %0) local_unnamed_addr #2 align 2 {
  %2 = load ptr, ptr %0, align 8
  %3 = getelementptr inbounds i8, ptr %2, i64 16
  %4 = load ptr, ptr %3, align 8
  %5 = getelementptr inbounds i8, ptr %4, i64 16
  %6 = load ptr, ptr %5, align 8
  %7 = getelementptr inbounds i8, ptr %2, i64 32
  %8 = load i32, ptr %7, align 8
  %9 = sext i32 %8 to i64
  %10 = getelementptr inbounds ptr, ptr %6, i64 %9
  %11 = load ptr, ptr %10, align 8
  %12 = load ptr, ptr %11, align 8
  ret ptr %12
}